; Function Attrs: nounwind uwtable
define noalias nonnull ptr @l_Lean_IR_EmitC_emitUSet(ptr noundef %0, ptr noundef %1, ptr noundef %2, ptr readnone captures(none) %3, ptr noundef %4) local_unnamed_addr #0 {
  %6 = load ptr, ptr @l_Lean_IR_EmitC_emitUSet___closed__1, align 8, !tbaa !4
  %7 = tail call ptr @lean_string_append(ptr noundef %4, ptr noundef %6) #5
  %8 = tail call ptr @l___private_Init_Data_Repr_0__Nat_reprFast(ptr noundef %0) #5
  %9 = load ptr, ptr @l_Lean_IR_EmitC_argToCString___closed__1, align 8, !tbaa !4
  %10 = tail call ptr @lean_string_append(ptr noundef %9, ptr noundef %8) #5
  %11 = ptrtoint ptr %8 to i64
  %12 = and i64 %11, 1
  %.not = icmp eq i64 %12, 0
  br i1 %.not, label %13, label %lean_dec.exit36

13:                                               ; preds = %5
  %14 = load i32, ptr %8, align 4, !tbaa !8
  %15 = icmp sgt i32 %14, 1
  br i1 %15, label %16, label %18, !prof !11

16:                                               ; preds = %13
  %17 = add nsw i32 %14, -1
  store i32 %17, ptr %8, align 4, !tbaa !8
  br label %lean_dec.exit36

18:                                               ; preds = %13
  %.not.i = icmp eq i32 %14, 0
  br i1 %.not.i, label %lean_dec.exit36, label %19

19:                                               ; preds = %18
  tail call void @lean_dec_ref_cold(ptr noundef nonnull %8) #5
  br label %lean_dec.exit36

lean_dec.exit36:                                  ; preds = %19, %18, %16, %5
  %20 = tail call ptr @lean_string_append(ptr noundef %7, ptr noundef %10) #5
  %21 = ptrtoint ptr %10 to i64
  %22 = and i64 %21, 1
  %.not45 = icmp eq i64 %22, 0
  br i1 %.not45, label %23, label %lean_dec.exit35

23:                                               ; preds = %lean_dec.exit36
  %24 = load i32, ptr %10, align 4, !tbaa !8
  %25 = icmp sgt i32 %24, 1
  br i1 %25, label %26, label %28, !prof !11

26:                                               ; preds = %23
  %27 = add nsw i32 %24, -1
  store i32 %27, ptr %10, align 4, !tbaa !8
  br label %lean_dec.exit35

28:                                               ; preds = %23
  %.not.i37 = icmp eq i32 %24, 0
  br i1 %.not.i37, label %lean_dec.exit35, label %29

29:                                               ; preds = %28
  tail call void @lean_dec_ref_cold(ptr noundef nonnull %10) #5
  br label %lean_dec.exit35

lean_dec.exit35:                                  ; preds = %29, %28, %26, %lean_dec.exit36
  %30 = load ptr, ptr @l_Nat_forM_loop___at_Lean_IR_EmitC_emitFnDeclAux___spec__1___closed__1, align 8, !tbaa !4
  %31 = tail call ptr @lean_string_append(ptr noundef %20, ptr noundef %30) #5
  %32 = tail call ptr @l___private_Init_Data_Repr_0__Nat_reprFast(ptr noundef %1) #5
  %33 = tail call ptr @lean_string_append(ptr noundef %31, ptr noundef %32) #5
  %34 = ptrtoint ptr %32 to i64
  %35 = and i64 %34, 1
  %.not46 = icmp eq i64 %35, 0
  br i1 %.not46, label %36, label %lean_dec.exit34

36:                                               ; preds = %lean_dec.exit35
  %37 = load i32, ptr %32, align 4, !tbaa !8
  %38 = icmp sgt i32 %37, 1
  br i1 %38, label %39, label %41, !prof !11

39:                                               ; preds = %36
  %40 = add nsw i32 %37, -1
  store i32 %40, ptr %32, align 4, !tbaa !8
  br label %lean_dec.exit34

41:                                               ; preds = %36
  %.not.i39 = icmp eq i32 %37, 0
  br i1 %.not.i39, label %lean_dec.exit34, label %42

42:                                               ; preds = %41
  tail call void @lean_dec_ref_cold(ptr noundef nonnull %32) #5
  br label %lean_dec.exit34

lean_dec.exit34:                                  ; preds = %42, %41, %39, %lean_dec.exit35
  %43 = tail call ptr @lean_string_append(ptr noundef %33, ptr noundef %30) #5
  %44 = tail call ptr @l___private_Init_Data_Repr_0__Nat_reprFast(ptr noundef %2) #5
  %45 = tail call ptr @lean_string_append(ptr noundef %9, ptr noundef %44) #5
  %46 = ptrtoint ptr %44 to i64
  %47 = and i64 %46, 1
  %.not47 = icmp eq i64 %47, 0
  br i1 %.not47, label %48, label %lean_dec.exit33

48:                                               ; preds = %lean_dec.exit34
  %49 = load i32, ptr %44, align 4, !tbaa !8
  %50 = icmp sgt i32 %49, 1
  br i1 %50, label %51, label %53, !prof !11

51:                                               ; preds = %48
  %52 = add nsw i32 %49, -1
  store i32 %52, ptr %44, align 4, !tbaa !8
  br label %lean_dec.exit33

53:                                               ; preds = %48
  %.not.i41 = icmp eq i32 %49, 0
  br i1 %.not.i41, label %lean_dec.exit33, label %54

54:                                               ; preds = %53
  tail call void @lean_dec_ref_cold(ptr noundef nonnull %44) #5
  br label %lean_dec.exit33

lean_dec.exit33:                                  ; preds = %54, %53, %51, %lean_dec.exit34
  %55 = tail call ptr @lean_string_append(ptr noundef %43, ptr noundef %45) #5
  %56 = ptrtoint ptr %45 to i64
  %57 = and i64 %56, 1
  %.not48 = icmp eq i64 %57, 0
  br i1 %.not48, label %58, label %lean_dec.exit

58:                                               ; preds = %lean_dec.exit33
  %59 = load i32, ptr %45, align 4, !tbaa !8
  %60 = icmp sgt i32 %59, 1
  br i1 %60, label %61, label %63, !prof !11

61:                                               ; preds = %58
  %62 = add nsw i32 %59, -1
  store i32 %62, ptr %45, align 4, !tbaa !8
  br label %lean_dec.exit

63:                                               ; preds = %58
  %.not.i43 = icmp eq i32 %59, 0
  br i1 %.not.i43, label %lean_dec.exit, label %64

64:                                               ; preds = %63
  tail call void @lean_dec_ref_cold(ptr noundef nonnull %45) #5
  br label %lean_dec.exit

lean_dec.exit:                                    ; preds = %64, %63, %61, %lean_dec.exit33
  %65 = load ptr, ptr @l_Lean_IR_EmitC_emitInc___lambda__1___closed__1, align 8, !tbaa !4
  %66 = tail call ptr @lean_string_append(ptr noundef %55, ptr noundef %65) #5
  %67 = load ptr, ptr @l_Lean_IR_EmitC_emitLn___rarg___closed__1, align 8, !tbaa !4
  %68 = tail call ptr @lean_string_append(ptr noundef %66, ptr noundef %67) #5
  tail call void @lean_inc_heartbeat() #5
  %69 = tail call noalias ptr @mi_malloc_small(i64 noundef 24) #5
  %70 = icmp eq ptr %69, null
  br i1 %70, label %71, label %lean_alloc_ctor.exit

71:                                               ; preds = %lean_dec.exit
  tail call void @lean_internal_panic_out_of_memory() #6
  unreachable

lean_alloc_ctor.exit:                             ; preds = %lean_dec.exit
  %72 = getelementptr inbounds nuw i8, ptr %69, i64 4
  store i32 1, ptr %69, align 4, !tbaa !8
  store i32 131096, ptr %72, align 4
  %73 = getelementptr inbounds nuw i8, ptr %69, i64 8
  store ptr inttoptr (i64 1 to ptr), ptr %73, align 8, !tbaa !4
  %74 = getelementptr inbounds nuw i8, ptr %69, i64 16
  store ptr %68, ptr %74, align 8, !tbaa !4
  ret ptr %69
}